target datalayout = "e-m:e-p270:32:32-p271:32:32-p272:64:64-i64:64-i128:128-f80:128-n8:16:32:64-S128"
target triple = "x86_64-pc-linux-gnu"

%"class.lean::mpz" = type { [1 x %struct.__mpz_struct] }
%struct.__mpz_struct = type { i32, i32, ptr }

@_ZN4lean3mpzC1Ev = unnamed_addr alias void (ptr), ptr @_ZN4lean3mpzC2Ev
@_ZN4lean3mpzD1Ev = unnamed_addr alias void (ptr), ptr @_ZN4lean3mpzD2Ev

; Function Attrs: mustprogress uwtable
define void @_ZN4lean3mpz4edivERKS0_S2_(ptr dead_on_unwind noalias writable sret(%"class.lean::mpz") align 8 %0, ptr noundef nonnull align 8 dereferenceable(16) %1, ptr noundef nonnull align 8 dereferenceable(16) %2) #2 align 2 personality ptr @__gxx_personality_v0 {
  %4 = alloca ptr, align 8
  %5 = alloca ptr, align 8
  %6 = alloca ptr, align 8
  %7 = alloca i1, align 1
  %8 = alloca [1 x %struct.__mpz_struct], align 16
  %9 = alloca ptr, align 8
  %10 = alloca i32, align 4
  store ptr %0, ptr %4, align 8
  store ptr %1, ptr %5, align 8, !tbaa !3
  store ptr %2, ptr %6, align 8, !tbaa !3
  store i1 false, ptr %7, align 1
  call void @_ZN4lean3mpzC1Ev(ptr noundef nonnull align 8 dereferenceable(16) %0)
  call void @llvm.lifetime.start.p0(i64 16, ptr %8) #17
  %11 = getelementptr inbounds [1 x %struct.__mpz_struct], ptr %8, i64 0, i64 0
  call void @__gmpz_init(ptr noundef %11) #17
  %12 = getelementptr inbounds nuw %"class.lean::mpz", ptr %0, i32 0, i32 0
  %13 = getelementptr inbounds [1 x %struct.__mpz_struct], ptr %12, i64 0, i64 0
  %14 = getelementptr inbounds [1 x %struct.__mpz_struct], ptr %8, i64 0, i64 0
  %15 = load ptr, ptr %5, align 8, !tbaa !3
  %16 = getelementptr inbounds nuw %"class.lean::mpz", ptr %15, i32 0, i32 0
  %17 = getelementptr inbounds [1 x %struct.__mpz_struct], ptr %16, i64 0, i64 0
  %18 = load ptr, ptr %6, align 8, !tbaa !3
  %19 = getelementptr inbounds nuw %"class.lean::mpz", ptr %18, i32 0, i32 0
  %20 = getelementptr inbounds [1 x %struct.__mpz_struct], ptr %19, i64 0, i64 0
  invoke void @__gmpz_tdiv_qr(ptr noundef %13, ptr noundef %14, ptr noundef %17, ptr noundef %20)
          to label %21 unwind label %61

21:                                               ; preds = %3
  %22 = getelementptr inbounds [1 x %struct.__mpz_struct], ptr %8, i64 0, i64 0
  %23 = getelementptr inbounds nuw %struct.__mpz_struct, ptr %22, i32 0, i32 1
  %24 = load i32, ptr %23, align 4, !tbaa !15
  %25 = icmp slt i32 %24, 0
  br i1 %25, label %26, label %27

26:                                               ; preds = %21
  br label %33

27:                                               ; preds = %21
  %28 = getelementptr inbounds [1 x %struct.__mpz_struct], ptr %8, i64 0, i64 0
  %29 = getelementptr inbounds nuw %struct.__mpz_struct, ptr %28, i32 0, i32 1
  %30 = load i32, ptr %29, align 4, !tbaa !15
  %31 = icmp sgt i32 %30, 0
  %32 = zext i1 %31 to i32
  br label %33

33:                                               ; preds = %27, %26
  %34 = phi i32 [ -1, %26 ], [ %32, %27 ]
  %35 = icmp slt i32 %34, 0
  br i1 %35, label %36, label %72

36:                                               ; preds = %33
  %37 = load ptr, ptr %6, align 8, !tbaa !3
  %38 = getelementptr inbounds nuw %"class.lean::mpz", ptr %37, i32 0, i32 0
  %39 = getelementptr inbounds [1 x %struct.__mpz_struct], ptr %38, i64 0, i64 0
  %40 = getelementptr inbounds nuw %struct.__mpz_struct, ptr %39, i32 0, i32 1
  %41 = load i32, ptr %40, align 4, !tbaa !15
  %42 = icmp slt i32 %41, 0
  br i1 %42, label %43, label %44

43:                                               ; preds = %36
  br label %52

44:                                               ; preds = %36
  %45 = load ptr, ptr %6, align 8, !tbaa !3
  %46 = getelementptr inbounds nuw %"class.lean::mpz", ptr %45, i32 0, i32 0
  %47 = getelementptr inbounds [1 x %struct.__mpz_struct], ptr %46, i64 0, i64 0
  %48 = getelementptr inbounds nuw %struct.__mpz_struct, ptr %47, i32 0, i32 1
  %49 = load i32, ptr %48, align 4, !tbaa !15
  %50 = icmp sgt i32 %49, 0
  %51 = zext i1 %50 to i32
  br label %52

52:                                               ; preds = %44, %43
  %53 = phi i32 [ -1, %43 ], [ %51, %44 ]
  %54 = icmp sgt i32 %53, 0
  br i1 %54, label %55, label %65

55:                                               ; preds = %52
  %56 = getelementptr inbounds nuw %"class.lean::mpz", ptr %0, i32 0, i32 0
  %57 = getelementptr inbounds [1 x %struct.__mpz_struct], ptr %56, i64 0, i64 0
  %58 = getelementptr inbounds nuw %"class.lean::mpz", ptr %0, i32 0, i32 0
  %59 = getelementptr inbounds [1 x %struct.__mpz_struct], ptr %58, i64 0, i64 0
  invoke void @__gmpz_sub_ui(ptr noundef %57, ptr noundef %59, i64 noundef 1)
          to label %60 unwind label %61

60:                                               ; preds = %55
  br label %71

61:                                               ; preds = %72, %65, %55, %3
  %62 = landingpad { ptr, i32 }
          cleanup
  %63 = extractvalue { ptr, i32 } %62, 0
  store ptr %63, ptr %9, align 8
  %64 = extractvalue { ptr, i32 } %62, 1
  store i32 %64, ptr %10, align 4
  call void @llvm.lifetime.end.p0(i64 16, ptr %8) #17
  call void @_ZN4lean3mpzD1Ev(ptr noundef nonnull align 8 dereferenceable(16) %0) #17
  br label %78

65:                                               ; preds = %52
  %66 = getelementptr inbounds nuw %"class.lean::mpz", ptr %0, i32 0, i32 0
  %67 = getelementptr inbounds [1 x %struct.__mpz_struct], ptr %66, i64 0, i64 0
  %68 = getelementptr inbounds nuw %"class.lean::mpz", ptr %0, i32 0, i32 0
  %69 = getelementptr inbounds [1 x %struct.__mpz_struct], ptr %68, i64 0, i64 0
  invoke void @__gmpz_add_ui(ptr noundef %67, ptr noundef %69, i64 noundef 1)
          to label %70 unwind label %61

70:                                               ; preds = %65
  br label %71

71:                                               ; preds = %70, %60
  br label %72

72:                                               ; preds = %71, %33
  %73 = getelementptr inbounds [1 x %struct.__mpz_struct], ptr %8, i64 0, i64 0
  invoke void @__gmpz_clear(ptr noundef %73)
          to label %74 unwind label %61

74:                                               ; preds = %72
  store i1 true, ptr %7, align 1
  call void @llvm.lifetime.end.p0(i64 16, ptr %8) #17
  %75 = load i1, ptr %7, align 1
  br i1 %75, label %77, label %76

76:                                               ; preds = %74
  call void @_ZN4lean3mpzD1Ev(ptr noundef nonnull align 8 dereferenceable(16) %0) #17
  br label %77

77:                                               ; preds = %76, %74
  ret void

78:                                               ; preds = %61
  %79 = load ptr, ptr %9, align 8
  %80 = load i32, ptr %10, align 4
  %81 = insertvalue { ptr, i32 } poison, ptr %79, 0
  %82 = insertvalue { ptr, i32 } %81, i32 %80, 1
  resume { ptr, i32 } %82
}