; Function Attrs: mustprogress uwtable
define void @_ZN4lean3mpz4edivERKS0_S2_(ptr dead_on_unwind noalias writable sret(%"class.lean::mpz") align 8 %0, ptr noundef nonnull align 8 dereferenceable(16) %1, ptr noundef nonnull align 8 dereferenceable(16) %2) local_unnamed_addr #2 align 2 personality ptr @__gxx_personality_v0 {
  %4 = alloca [1 x %struct.__mpz_struct], align 16
  tail call void @_ZN4lean3mpzC1Ev(ptr noundef nonnull align 8 dereferenceable(16) %0)
  call void @llvm.lifetime.start.p0(i64 16, ptr nonnull %4) #18
  call void @__gmpz_init(ptr noundef nonnull %4) #18
  invoke void @__gmpz_tdiv_qr(ptr noundef nonnull %0, ptr noundef nonnull %4, ptr noundef nonnull %1, ptr noundef nonnull %2)
          to label %5 unwind label %13

5:                                                ; preds = %3
  %6 = getelementptr inbounds nuw i8, ptr %4, i64 4
  %7 = load i32, ptr %6, align 4, !tbaa !3
  %8 = icmp slt i32 %7, 0
  br i1 %8, label %9, label %16

9:                                                ; preds = %5
  %10 = getelementptr inbounds nuw i8, ptr %2, i64 4
  %11 = load i32, ptr %10, align 4, !tbaa !3
  %spec.select = icmp sgt i32 %11, 0
  br i1 %spec.select, label %12, label %15

12:                                               ; preds = %9
  invoke void @__gmpz_sub_ui(ptr noundef nonnull %0, ptr noundef nonnull %0, i64 noundef 1)
          to label %16 unwind label %13

13:                                               ; preds = %16, %15, %12, %3
  %14 = landingpad { ptr, i32 }
          cleanup
  call void @llvm.lifetime.end.p0(i64 16, ptr nonnull %4) #18
  call void @_ZN4lean3mpzD1Ev(ptr noundef nonnull align 8 dereferenceable(16) %0) #18
  resume { ptr, i32 } %14

15:                                               ; preds = %9
  invoke void @__gmpz_add_ui(ptr noundef nonnull %0, ptr noundef nonnull %0, i64 noundef 1)
          to label %16 unwind label %13

16:                                               ; preds = %12, %15, %5
  invoke void @__gmpz_clear(ptr noundef nonnull %4)
          to label %17 unwind label %13

17:                                               ; preds = %16
  call void @llvm.lifetime.end.p0(i64 16, ptr nonnull %4) #18
  ret void
}